target datalayout = "e-m:e-p270:32:32-p271:32:32-p272:64:64-i64:64-i128:128-f80:128-n8:16:32:64-S128"
target triple = "x86_64-pc-linux-gnu"

%struct.Kit_DsdNtk_t_ = type { i16, i16, i16, i16, ptr, ptr, ptr }

; Function Attrs: inlinehint nounwind uwtable
define internal i32 @Kit_TruthWordNum(i32 noundef %0) #4 {
  %2 = alloca i32, align 4
  store i32 %0, ptr %2, align 4, !tbaa !3
  %3 = load i32, ptr %2, align 4, !tbaa !3
  %4 = icmp sle i32 %3, 5
  br i1 %4, label %5, label %6

5:                                                ; preds = %1
  br label %10

6:                                                ; preds = %1
  %7 = load i32, ptr %2, align 4, !tbaa !3
  %8 = sub nsw i32 %7, 5
  %9 = shl i32 1, %8
  br label %10

10:                                               ; preds = %6, %5
  %11 = phi i32 [ 1, %5 ], [ %9, %6 ]
  ret i32 %11
}

; Function Attrs: inlinehint nounwind uwtable
define internal i32 @Kit_DsdObjOffset(i32 noundef %0) #4 {
  %2 = alloca i32, align 4
  store i32 %0, ptr %2, align 4, !tbaa !3
  %3 = load i32, ptr %2, align 4, !tbaa !3
  %4 = ashr i32 %3, 1
  %5 = load i32, ptr %2, align 4, !tbaa !3
  %6 = and i32 %5, 1
  %7 = icmp sgt i32 %6, 0
  %8 = zext i1 %7 to i32
  %9 = add nsw i32 %4, %8
  ret i32 %9
}

; Function Attrs: nounwind uwtable
define ptr @Kit_DsdObjAlloc(ptr noundef %0, i32 noundef %1, i32 noundef %2) #0 {
  %4 = alloca ptr, align 8
  %5 = alloca i32, align 4
  %6 = alloca i32, align 4
  %7 = alloca ptr, align 8
  %8 = alloca i32, align 4
  store ptr %0, ptr %4, align 8, !tbaa !37
  store i32 %1, ptr %5, align 4, !tbaa !3
  store i32 %2, ptr %6, align 4, !tbaa !3
  call void @llvm.lifetime.start.p0(i64 8, ptr %7) #9
  call void @llvm.lifetime.start.p0(i64 4, ptr %8) #9
  %9 = load i32, ptr %6, align 4, !tbaa !3
  %10 = call i32 @Kit_DsdObjOffset(i32 noundef %9)
  %11 = load i32, ptr %5, align 4, !tbaa !3
  %12 = icmp eq i32 %11, 5
  %13 = zext i1 %12 to i32
  %14 = load i32, ptr %6, align 4, !tbaa !3
  %15 = call i32 @Kit_TruthWordNum(i32 noundef %14)
  %16 = mul nsw i32 %13, %15
  %17 = add i32 %10, %16
  %18 = zext i32 %17 to i64
  %19 = mul i64 4, %18
  %20 = add i64 4, %19
  %21 = trunc i64 %20 to i32
  store i32 %21, ptr %8, align 4, !tbaa !3
  %22 = load i32, ptr %8, align 4, !tbaa !3
  %23 = sext i32 %22 to i64
  %24 = mul i64 1, %23
  %25 = call noalias ptr @malloc(i64 noundef %24) #10
  store ptr %25, ptr %7, align 8, !tbaa !39
  %26 = load ptr, ptr %7, align 8, !tbaa !39
  %27 = load i32, ptr %8, align 4, !tbaa !3
  %28 = sext i32 %27 to i64
  call void @llvm.memset.p0.i64(ptr align 4 %26, i8 0, i64 %28, i1 false)
  %29 = load ptr, ptr %4, align 8, !tbaa !37
  %30 = getelementptr inbounds nuw %struct.Kit_DsdNtk_t_, ptr %29, i32 0, i32 0
  %31 = load i16, ptr %30, align 8, !tbaa !41
  %32 = zext i16 %31 to i32
  %33 = load ptr, ptr %4, align 8, !tbaa !37
  %34 = getelementptr inbounds nuw %struct.Kit_DsdNtk_t_, ptr %33, i32 0, i32 2
  %35 = load i16, ptr %34, align 4, !tbaa !45
  %36 = zext i16 %35 to i32
  %37 = add nsw i32 %32, %36
  %38 = load ptr, ptr %7, align 8, !tbaa !39
  %39 = load i32, ptr %38, align 4
  %40 = and i32 %37, 63
  %41 = and i32 %39, -64
  %42 = or i32 %41, %40
  store i32 %42, ptr %38, align 4
  %43 = load i32, ptr %5, align 4, !tbaa !3
  %44 = load ptr, ptr %7, align 8, !tbaa !39
  %45 = load i32, ptr %44, align 4
  %46 = and i32 %43, 7
  %47 = shl i32 %46, 6
  %48 = and i32 %45, -449
  %49 = or i32 %48, %47
  store i32 %49, ptr %44, align 4
  %50 = load i32, ptr %6, align 4, !tbaa !3
  %51 = load ptr, ptr %7, align 8, !tbaa !39
  %52 = load i32, ptr %51, align 4
  %53 = and i32 %50, 63
  %54 = shl i32 %53, 26
  %55 = and i32 %52, 67108863
  %56 = or i32 %55, %54
  store i32 %56, ptr %51, align 4
  %57 = load i32, ptr %6, align 4, !tbaa !3
  %58 = call i32 @Kit_DsdObjOffset(i32 noundef %57)
  %59 = load ptr, ptr %7, align 8, !tbaa !39
  %60 = load i32, ptr %59, align 4
  %61 = and i32 %58, 255
  %62 = shl i32 %61, 10
  %63 = and i32 %60, -261121
  %64 = or i32 %63, %62
  store i32 %64, ptr %59, align 4
  %65 = load ptr, ptr %4, align 8, !tbaa !37
  %66 = getelementptr inbounds nuw %struct.Kit_DsdNtk_t_, ptr %65, i32 0, i32 2
  %67 = load i16, ptr %66, align 4, !tbaa !45
  %68 = zext i16 %67 to i32
  %69 = load ptr, ptr %4, align 8, !tbaa !37
  %70 = getelementptr inbounds nuw %struct.Kit_DsdNtk_t_, ptr %69, i32 0, i32 1
  %71 = load i16, ptr %70, align 2, !tbaa !46
  %72 = zext i16 %71 to i32
  %73 = icmp eq i32 %68, %72
  br i1 %73, label %74, label %106

74:                                               ; preds = %3
  %75 = load ptr, ptr %4, align 8, !tbaa !37
  %76 = getelementptr inbounds nuw %struct.Kit_DsdNtk_t_, ptr %75, i32 0, i32 1
  %77 = load i16, ptr %76, align 2, !tbaa !46
  %78 = zext i16 %77 to i32
  %79 = mul nsw i32 %78, 2
  %80 = trunc i32 %79 to i16
  store i16 %80, ptr %76, align 2, !tbaa !46
  %81 = load ptr, ptr %4, align 8, !tbaa !37
  %82 = getelementptr inbounds nuw %struct.Kit_DsdNtk_t_, ptr %81, i32 0, i32 6
  %83 = load ptr, ptr %82, align 8, !tbaa !47
  %84 = icmp ne ptr %83, null
  br i1 %84, label %85, label %95

85:                                               ; preds = %74
  %86 = load ptr, ptr %4, align 8, !tbaa !37
  %87 = getelementptr inbounds nuw %struct.Kit_DsdNtk_t_, ptr %86, i32 0, i32 6
  %88 = load ptr, ptr %87, align 8, !tbaa !47
  %89 = load ptr, ptr %4, align 8, !tbaa !37
  %90 = getelementptr inbounds nuw %struct.Kit_DsdNtk_t_, ptr %89, i32 0, i32 1
  %91 = load i16, ptr %90, align 2, !tbaa !46
  %92 = zext i16 %91 to i64
  %93 = mul i64 8, %92
  %94 = call ptr @realloc(ptr noundef %88, i64 noundef %93) #11
  br label %102

95:                                               ; preds = %74
  %96 = load ptr, ptr %4, align 8, !tbaa !37
  %97 = getelementptr inbounds nuw %struct.Kit_DsdNtk_t_, ptr %96, i32 0, i32 1
  %98 = load i16, ptr %97, align 2, !tbaa !46
  %99 = zext i16 %98 to i64
  %100 = mul i64 8, %99
  %101 = call noalias ptr @malloc(i64 noundef %100) #10
  br label %102

102:                                              ; preds = %95, %85
  %103 = phi ptr [ %94, %85 ], [ %101, %95 ]
  %104 = load ptr, ptr %4, align 8, !tbaa !37
  %105 = getelementptr inbounds nuw %struct.Kit_DsdNtk_t_, ptr %104, i32 0, i32 6
  store ptr %103, ptr %105, align 8, !tbaa !47
  br label %106

106:                                              ; preds = %102, %3
  %107 = load ptr, ptr %7, align 8, !tbaa !39
  %108 = load ptr, ptr %4, align 8, !tbaa !37
  %109 = getelementptr inbounds nuw %struct.Kit_DsdNtk_t_, ptr %108, i32 0, i32 6
  %110 = load ptr, ptr %109, align 8, !tbaa !47
  %111 = load ptr, ptr %4, align 8, !tbaa !37
  %112 = getelementptr inbounds nuw %struct.Kit_DsdNtk_t_, ptr %111, i32 0, i32 2
  %113 = load i16, ptr %112, align 4, !tbaa !45
  %114 = add i16 %113, 1
  store i16 %114, ptr %112, align 4, !tbaa !45
  %115 = zext i16 %113 to i64
  %116 = getelementptr inbounds nuw ptr, ptr %110, i64 %115
  store ptr %107, ptr %116, align 8, !tbaa !39
  %117 = load ptr, ptr %7, align 8, !tbaa !39
  call void @llvm.lifetime.end.p0(i64 4, ptr %8) #9
  call void @llvm.lifetime.end.p0(i64 8, ptr %7) #9
  ret ptr %117
}