; Function Attrs: mustprogress nounwind willreturn uwtable
define noundef ptr @Kit_DsdObjAlloc(ptr noundef captures(none) %0, i32 noundef %1, i32 noundef %2) local_unnamed_addr #6 {
  %4 = ashr i32 %2, 1
  %5 = and i32 %2, 1
  %6 = add nsw i32 %4, %5
  %7 = icmp eq i32 %1, 5
  %8 = icmp slt i32 %2, 6
  %9 = add nsw i32 %2, -5
  %10 = shl nuw i32 1, %9
  %11 = select i1 %8, i32 1, i32 %10
  %12 = select i1 %7, i32 %11, i32 0
  %13 = add i32 %12, %6
  %14 = shl i32 %13, 2
  %15 = add i32 %14, 4
  %16 = sext i32 %15 to i64
  %calloc = tail call ptr @calloc(i64 1, i64 %16)
  %17 = load i16, ptr %0, align 8, !tbaa !34
  %18 = zext i16 %17 to i32
  %19 = getelementptr inbounds nuw i8, ptr %0, i64 4
  %20 = load i16, ptr %19, align 4, !tbaa !38
  %21 = zext i16 %20 to i32
  %22 = add nuw nsw i32 %21, %18
  %23 = load i32, ptr %calloc, align 4
  %24 = and i32 %22, 63
  %25 = and i32 %23, 66847232
  %26 = shl i32 %1, 6
  %27 = and i32 %26, 448
  %28 = shl i32 %2, 26
  %29 = shl i32 %6, 10
  %30 = and i32 %29, 261120
  %31 = or disjoint i32 %28, %27
  %32 = or disjoint i32 %31, %30
  %33 = or disjoint i32 %32, %25
  %34 = or disjoint i32 %33, %24
  store i32 %34, ptr %calloc, align 4
  %35 = getelementptr inbounds nuw i8, ptr %0, i64 2
  %36 = load i16, ptr %35, align 2, !tbaa !39
  %37 = icmp eq i16 %20, %36
  br i1 %37, label %38, label %._crit_edge

._crit_edge:                                      ; preds = %3
  %.phi.trans.insert = getelementptr inbounds nuw i8, ptr %0, i64 24
  %.pre = load ptr, ptr %.phi.trans.insert, align 8, !tbaa !40
  br label %50

38:                                               ; preds = %3
  %39 = shl i16 %20, 1
  store i16 %39, ptr %35, align 2, !tbaa !39
  %40 = getelementptr inbounds nuw i8, ptr %0, i64 24
  %41 = load ptr, ptr %40, align 8, !tbaa !40
  %.not = icmp eq ptr %41, null
  %42 = zext i16 %39 to i64
  %43 = shl nuw nsw i64 %42, 3
  br i1 %.not, label %46, label %44

44:                                               ; preds = %38
  %45 = tail call ptr @realloc(ptr noundef nonnull %41, i64 noundef %43) #28
  %.pre27.pre = load i16, ptr %19, align 4, !tbaa !38
  br label %48

46:                                               ; preds = %38
  %47 = tail call noalias ptr @malloc(i64 noundef %43) #26
  br label %48

48:                                               ; preds = %46, %44
  %.pre27 = phi i16 [ %.pre27.pre, %44 ], [ %20, %46 ]
  %49 = phi ptr [ %45, %44 ], [ %47, %46 ]
  store ptr %49, ptr %40, align 8, !tbaa !40
  br label %50

50:                                               ; preds = %._crit_edge, %48
  %51 = phi i16 [ %20, %._crit_edge ], [ %.pre27, %48 ]
  %52 = phi ptr [ %.pre, %._crit_edge ], [ %49, %48 ]
  %53 = add i16 %51, 1
  store i16 %53, ptr %19, align 4, !tbaa !38
  %54 = zext i16 %51 to i64
  %55 = getelementptr inbounds nuw ptr, ptr %52, i64 %54
  store ptr %calloc, ptr %55, align 8, !tbaa !41
  ret ptr %calloc
}